target datalayout = "e-m:e-p270:32:32-p271:32:32-p272:64:64-i64:64-i128:128-f80:128-n8:16:32:64-S128"
target triple = "x86_64-pc-linux-gnu"

%struct.AVFilterContext = type { ptr, ptr, ptr, ptr, ptr, i32, ptr, ptr, i32, ptr, ptr, i32, i32, ptr, ptr, ptr, ptr, i32, ptr, i32, i32 }
%struct.XFadeContext = type { ptr, i32, i64, i64, ptr, i32, i32, i32, i64, i64, i64, i64, i32, [2 x i32], [2 x ptr], i32, [4 x i16], [4 x i16], ptr, ptr }
%struct.AVRational = type { i32, i32 }
%struct.AVFrame = type { [8 x ptr], [8 x i32], ptr, i32, i32, i32, i32, i32, %struct.AVRational, i64, i64, %struct.AVRational, i32, ptr, i32, i32, [8 x ptr], ptr, i32, ptr, i32, i32, i32, i32, i32, i32, i32, i64, ptr, i32, ptr, ptr, i64, i64, i64, i64, ptr, %struct.AVChannelLayout, i64 }
%struct.AVChannelLayout = type { i32, i32, %union.anon.1, ptr }
%union.anon.1 = type { i64 }

; Function Attrs: nounwind uwtable
define internal void @rectcrop16_transition(ptr noundef %0, ptr noundef %1, ptr noundef %2, ptr noundef %3, float noundef %4, i32 noundef %5, i32 noundef %6, i32 noundef %7) #1 {
  %9 = alloca ptr, align 8
  %10 = alloca ptr, align 8
  %11 = alloca ptr, align 8
  %12 = alloca ptr, align 8
  %13 = alloca float, align 4
  %14 = alloca i32, align 4
  %15 = alloca i32, align 4
  %16 = alloca i32, align 4
  %17 = alloca ptr, align 8
  %18 = alloca i32, align 4
  %19 = alloca i32, align 4
  %20 = alloca i32, align 4
  %21 = alloca i32, align 4
  %22 = alloca i32, align 4
  %23 = alloca i32, align 4
  %24 = alloca i32, align 4
  %25 = alloca ptr, align 8
  %26 = alloca i32, align 4
  %27 = alloca ptr, align 8
  %28 = alloca ptr, align 8
  %29 = alloca i32, align 4
  %30 = alloca i32, align 4
  %31 = alloca i32, align 4
  store ptr %0, ptr %9, align 8, !tbaa !4
  store ptr %1, ptr %10, align 8, !tbaa !36
  store ptr %2, ptr %11, align 8, !tbaa !36
  store ptr %3, ptr %12, align 8, !tbaa !36
  store float %4, ptr %13, align 4, !tbaa !90
  store i32 %5, ptr %14, align 4, !tbaa !32
  store i32 %6, ptr %15, align 4, !tbaa !32
  store i32 %7, ptr %16, align 4, !tbaa !32
  call void @llvm.lifetime.start.p0(i64 8, ptr %17) #10
  %32 = load ptr, ptr %9, align 8, !tbaa !4
  %33 = getelementptr inbounds nuw %struct.AVFilterContext, ptr %32, i32 0, i32 9
  %34 = load ptr, ptr %33, align 8, !tbaa !9
  store ptr %34, ptr %17, align 8, !tbaa !22
  call void @llvm.lifetime.start.p0(i64 4, ptr %18) #10
  %35 = load ptr, ptr %12, align 8, !tbaa !36
  %36 = getelementptr inbounds nuw %struct.AVFrame, ptr %35, i32 0, i32 3
  %37 = load i32, ptr %36, align 8, !tbaa !92
  store i32 %37, ptr %18, align 4, !tbaa !32
  call void @llvm.lifetime.start.p0(i64 4, ptr %19) #10
  %38 = load ptr, ptr %12, align 8, !tbaa !36
  %39 = getelementptr inbounds nuw %struct.AVFrame, ptr %38, i32 0, i32 4
  %40 = load i32, ptr %39, align 4, !tbaa !95
  store i32 %40, ptr %19, align 4, !tbaa !32
  call void @llvm.lifetime.start.p0(i64 4, ptr %20) #10
  %41 = load float, ptr %13, align 4, !tbaa !90
  %42 = fsub nsz float %41, 5.000000e-01
  %43 = call nsz float @llvm.fabs.f32(float %42)
  %44 = load i32, ptr %19, align 4, !tbaa !32
  %45 = sitofp i32 %44 to float
  %46 = fmul nsz float %43, %45
  %47 = fptosi float %46 to i32
  store i32 %47, ptr %20, align 4, !tbaa !32
  call void @llvm.lifetime.start.p0(i64 4, ptr %21) #10
  %48 = load float, ptr %13, align 4, !tbaa !90
  %49 = fsub nsz float %48, 5.000000e-01
  %50 = call nsz float @llvm.fabs.f32(float %49)
  %51 = load i32, ptr %18, align 4, !tbaa !32
  %52 = sitofp i32 %51 to float
  %53 = fmul nsz float %50, %52
  %54 = fptosi float %53 to i32
  store i32 %54, ptr %21, align 4, !tbaa !32
  call void @llvm.lifetime.start.p0(i64 4, ptr %22) #10
  store i32 0, ptr %22, align 4, !tbaa !32
  br label %55

55:                                               ; preds = %224, %8
  %56 = load i32, ptr %22, align 4, !tbaa !32
  %57 = load ptr, ptr %17, align 8, !tbaa !22
  %58 = getelementptr inbounds nuw %struct.XFadeContext, ptr %57, i32 0, i32 5
  %59 = load i32, ptr %58, align 8, !tbaa !82
  %60 = icmp slt i32 %56, %59
  br i1 %60, label %62, label %61

61:                                               ; preds = %55
  store i32 2, ptr %23, align 4
  call void @llvm.lifetime.end.p0(i64 4, ptr %22) #10
  br label %227

62:                                               ; preds = %55
  call void @llvm.lifetime.start.p0(i64 4, ptr %24) #10
  %63 = load ptr, ptr %17, align 8, !tbaa !22
  %64 = getelementptr inbounds nuw %struct.XFadeContext, ptr %63, i32 0, i32 16
  %65 = load i32, ptr %22, align 4, !tbaa !32
  %66 = sext i32 %65 to i64
  %67 = getelementptr inbounds [4 x i16], ptr %64, i64 0, i64 %66
  %68 = load i16, ptr %67, align 2, !tbaa !84
  %69 = zext i16 %68 to i32
  store i32 %69, ptr %24, align 4, !tbaa !32
  call void @llvm.lifetime.start.p0(i64 8, ptr %25) #10
  %70 = load ptr, ptr %12, align 8, !tbaa !36
  %71 = getelementptr inbounds nuw %struct.AVFrame, ptr %70, i32 0, i32 0
  %72 = load i32, ptr %22, align 4, !tbaa !32
  %73 = sext i32 %72 to i64
  %74 = getelementptr inbounds [8 x ptr], ptr %71, i64 0, i64 %73
  %75 = load ptr, ptr %74, align 8, !tbaa !96
  %76 = load i32, ptr %14, align 4, !tbaa !32
  %77 = load ptr, ptr %12, align 8, !tbaa !36
  %78 = getelementptr inbounds nuw %struct.AVFrame, ptr %77, i32 0, i32 1
  %79 = load i32, ptr %22, align 4, !tbaa !32
  %80 = sext i32 %79 to i64
  %81 = getelementptr inbounds [8 x i32], ptr %78, i64 0, i64 %80
  %82 = load i32, ptr %81, align 4, !tbaa !32
  %83 = mul nsw i32 %76, %82
  %84 = sext i32 %83 to i64
  %85 = getelementptr inbounds i8, ptr %75, i64 %84
  store ptr %85, ptr %25, align 8, !tbaa !101
  call void @llvm.lifetime.start.p0(i64 4, ptr %26) #10
  %86 = load i32, ptr %14, align 4, !tbaa !32
  store i32 %86, ptr %26, align 4, !tbaa !32
  br label %87

87:                                               ; preds = %220, %62
  %88 = load i32, ptr %26, align 4, !tbaa !32
  %89 = load i32, ptr %15, align 4, !tbaa !32
  %90 = icmp slt i32 %88, %89
  br i1 %90, label %92, label %91

91:                                               ; preds = %87
  store i32 5, ptr %23, align 4
  call void @llvm.lifetime.end.p0(i64 4, ptr %26) #10
  br label %223

92:                                               ; preds = %87
  call void @llvm.lifetime.start.p0(i64 8, ptr %27) #10
  %93 = load ptr, ptr %10, align 8, !tbaa !36
  %94 = getelementptr inbounds nuw %struct.AVFrame, ptr %93, i32 0, i32 0
  %95 = load i32, ptr %22, align 4, !tbaa !32
  %96 = sext i32 %95 to i64
  %97 = getelementptr inbounds [8 x ptr], ptr %94, i64 0, i64 %96
  %98 = load ptr, ptr %97, align 8, !tbaa !96
  %99 = load i32, ptr %26, align 4, !tbaa !32
  %100 = load ptr, ptr %10, align 8, !tbaa !36
  %101 = getelementptr inbounds nuw %struct.AVFrame, ptr %100, i32 0, i32 1
  %102 = load i32, ptr %22, align 4, !tbaa !32
  %103 = sext i32 %102 to i64
  %104 = getelementptr inbounds [8 x i32], ptr %101, i64 0, i64 %103
  %105 = load i32, ptr %104, align 4, !tbaa !32
  %106 = mul nsw i32 %99, %105
  %107 = sext i32 %106 to i64
  %108 = getelementptr inbounds i8, ptr %98, i64 %107
  store ptr %108, ptr %27, align 8, !tbaa !101
  call void @llvm.lifetime.start.p0(i64 8, ptr %28) #10
  %109 = load ptr, ptr %11, align 8, !tbaa !36
  %110 = getelementptr inbounds nuw %struct.AVFrame, ptr %109, i32 0, i32 0
  %111 = load i32, ptr %22, align 4, !tbaa !32
  %112 = sext i32 %111 to i64
  %113 = getelementptr inbounds [8 x ptr], ptr %110, i64 0, i64 %112
  %114 = load ptr, ptr %113, align 8, !tbaa !96
  %115 = load i32, ptr %26, align 4, !tbaa !32
  %116 = load ptr, ptr %11, align 8, !tbaa !36
  %117 = getelementptr inbounds nuw %struct.AVFrame, ptr %116, i32 0, i32 1
  %118 = load i32, ptr %22, align 4, !tbaa !32
  %119 = sext i32 %118 to i64
  %120 = getelementptr inbounds [8 x i32], ptr %117, i64 0, i64 %119
  %121 = load i32, ptr %120, align 4, !tbaa !32
  %122 = mul nsw i32 %115, %121
  %123 = sext i32 %122 to i64
  %124 = getelementptr inbounds i8, ptr %114, i64 %123
  store ptr %124, ptr %28, align 8, !tbaa !101
  call void @llvm.lifetime.start.p0(i64 4, ptr %29) #10
  store i32 0, ptr %29, align 4, !tbaa !32
  br label %125

125:                                              ; preds = %206, %92
  %126 = load i32, ptr %29, align 4, !tbaa !32
  %127 = load i32, ptr %18, align 4, !tbaa !32
  %128 = icmp slt i32 %126, %127
  br i1 %128, label %130, label %129

129:                                              ; preds = %125
  store i32 8, ptr %23, align 4
  call void @llvm.lifetime.end.p0(i64 4, ptr %29) #10
  br label %209

130:                                              ; preds = %125
  call void @llvm.lifetime.start.p0(i64 4, ptr %30) #10
  %131 = load i32, ptr %29, align 4, !tbaa !32
  %132 = load i32, ptr %18, align 4, !tbaa !32
  %133 = sdiv i32 %132, 2
  %134 = sub nsw i32 %131, %133
  %135 = icmp sge i32 %134, 0
  br i1 %135, label %136, label %141

136:                                              ; preds = %130
  %137 = load i32, ptr %29, align 4, !tbaa !32
  %138 = load i32, ptr %18, align 4, !tbaa !32
  %139 = sdiv i32 %138, 2
  %140 = sub nsw i32 %137, %139
  br label %147

141:                                              ; preds = %130
  %142 = load i32, ptr %29, align 4, !tbaa !32
  %143 = load i32, ptr %18, align 4, !tbaa !32
  %144 = sdiv i32 %143, 2
  %145 = sub nsw i32 %142, %144
  %146 = sub nsw i32 0, %145
  br label %147

147:                                              ; preds = %141, %136
  %148 = phi i32 [ %140, %136 ], [ %146, %141 ]
  %149 = load i32, ptr %21, align 4, !tbaa !32
  %150 = icmp slt i32 %148, %149
  br i1 %150, label %151, label %172

151:                                              ; preds = %147
  %152 = load i32, ptr %26, align 4, !tbaa !32
  %153 = load i32, ptr %19, align 4, !tbaa !32
  %154 = sdiv i32 %153, 2
  %155 = sub nsw i32 %152, %154
  %156 = icmp sge i32 %155, 0
  br i1 %156, label %157, label %162

157:                                              ; preds = %151
  %158 = load i32, ptr %26, align 4, !tbaa !32
  %159 = load i32, ptr %19, align 4, !tbaa !32
  %160 = sdiv i32 %159, 2
  %161 = sub nsw i32 %158, %160
  br label %168

162:                                              ; preds = %151
  %163 = load i32, ptr %26, align 4, !tbaa !32
  %164 = load i32, ptr %19, align 4, !tbaa !32
  %165 = sdiv i32 %164, 2
  %166 = sub nsw i32 %163, %165
  %167 = sub nsw i32 0, %166
  br label %168

168:                                              ; preds = %162, %157
  %169 = phi i32 [ %161, %157 ], [ %167, %162 ]
  %170 = load i32, ptr %20, align 4, !tbaa !32
  %171 = icmp slt i32 %169, %170
  br label %172

172:                                              ; preds = %168, %147
  %173 = phi i1 [ false, %147 ], [ %171, %168 ]
  %174 = zext i1 %173 to i32
  store i32 %174, ptr %30, align 4, !tbaa !32
  call void @llvm.lifetime.start.p0(i64 4, ptr %31) #10
  %175 = load float, ptr %13, align 4, !tbaa !90
  %176 = fcmp nsz olt float %175, 5.000000e-01
  br i1 %176, label %177, label %184

177:                                              ; preds = %172
  %178 = load ptr, ptr %28, align 8, !tbaa !101
  %179 = load i32, ptr %29, align 4, !tbaa !32
  %180 = sext i32 %179 to i64
  %181 = getelementptr inbounds i16, ptr %178, i64 %180
  %182 = load i16, ptr %181, align 2, !tbaa !84
  %183 = zext i16 %182 to i32
  br label %191

184:                                              ; preds = %172
  %185 = load ptr, ptr %27, align 8, !tbaa !101
  %186 = load i32, ptr %29, align 4, !tbaa !32
  %187 = sext i32 %186 to i64
  %188 = getelementptr inbounds i16, ptr %185, i64 %187
  %189 = load i16, ptr %188, align 2, !tbaa !84
  %190 = zext i16 %189 to i32
  br label %191

191:                                              ; preds = %184, %177
  %192 = phi i32 [ %183, %177 ], [ %190, %184 ]
  store i32 %192, ptr %31, align 4, !tbaa !32
  %193 = load i32, ptr %30, align 4, !tbaa !32
  %194 = icmp ne i32 %193, 0
  br i1 %194, label %197, label %195

195:                                              ; preds = %191
  %196 = load i32, ptr %24, align 4, !tbaa !32
  br label %199

197:                                              ; preds = %191
  %198 = load i32, ptr %31, align 4, !tbaa !32
  br label %199

199:                                              ; preds = %197, %195
  %200 = phi i32 [ %196, %195 ], [ %198, %197 ]
  %201 = trunc i32 %200 to i16
  %202 = load ptr, ptr %25, align 8, !tbaa !101
  %203 = load i32, ptr %29, align 4, !tbaa !32
  %204 = sext i32 %203 to i64
  %205 = getelementptr inbounds i16, ptr %202, i64 %204
  store i16 %201, ptr %205, align 2, !tbaa !84
  call void @llvm.lifetime.end.p0(i64 4, ptr %31) #10
  call void @llvm.lifetime.end.p0(i64 4, ptr %30) #10
  br label %206

206:                                              ; preds = %199
  %207 = load i32, ptr %29, align 4, !tbaa !32
  %208 = add nsw i32 %207, 1
  store i32 %208, ptr %29, align 4, !tbaa !32
  br label %125, !llvm.loop !169

209:                                              ; preds = %129
  %210 = load ptr, ptr %12, align 8, !tbaa !36
  %211 = getelementptr inbounds nuw %struct.AVFrame, ptr %210, i32 0, i32 1
  %212 = load i32, ptr %22, align 4, !tbaa !32
  %213 = sext i32 %212 to i64
  %214 = getelementptr inbounds [8 x i32], ptr %211, i64 0, i64 %213
  %215 = load i32, ptr %214, align 4, !tbaa !32
  %216 = sdiv i32 %215, 2
  %217 = load ptr, ptr %25, align 8, !tbaa !101
  %218 = sext i32 %216 to i64
  %219 = getelementptr inbounds i16, ptr %217, i64 %218
  store ptr %219, ptr %25, align 8, !tbaa !101
  call void @llvm.lifetime.end.p0(i64 8, ptr %28) #10
  call void @llvm.lifetime.end.p0(i64 8, ptr %27) #10
  br label %220

220:                                              ; preds = %209
  %221 = load i32, ptr %26, align 4, !tbaa !32
  %222 = add nsw i32 %221, 1
  store i32 %222, ptr %26, align 4, !tbaa !32
  br label %87, !llvm.loop !170

223:                                              ; preds = %91
  call void @llvm.lifetime.end.p0(i64 8, ptr %25) #10
  call void @llvm.lifetime.end.p0(i64 4, ptr %24) #10
  br label %224

224:                                              ; preds = %223
  %225 = load i32, ptr %22, align 4, !tbaa !32
  %226 = add nsw i32 %225, 1
  store i32 %226, ptr %22, align 4, !tbaa !32
  br label %55, !llvm.loop !171

227:                                              ; preds = %61
  call void @llvm.lifetime.end.p0(i64 4, ptr %21) #10
  call void @llvm.lifetime.end.p0(i64 4, ptr %20) #10
  call void @llvm.lifetime.end.p0(i64 4, ptr %19) #10
  call void @llvm.lifetime.end.p0(i64 4, ptr %18) #10
  call void @llvm.lifetime.end.p0(i64 8, ptr %17) #10
  ret void
}