; Function Attrs: nofree norecurse nosync nounwind memory(readwrite, inaccessiblemem: none) uwtable
define internal void @rectcrop16_transition(ptr noundef readonly captures(none) %0, ptr noundef readonly captures(none) %1, ptr noundef readonly captures(none) %2, ptr noundef readonly captures(none) %3, float noundef %4, i32 noundef %5, i32 noundef %6, i32 %7) #6 {
  %9 = getelementptr inbounds nuw i8, ptr %0, i64 72
  %10 = load ptr, ptr %9, align 8, !tbaa !4
  %11 = getelementptr inbounds nuw i8, ptr %3, i64 104
  %12 = load i32, ptr %11, align 8, !tbaa !85
  %13 = getelementptr inbounds nuw i8, ptr %3, i64 108
  %14 = load i32, ptr %13, align 4, !tbaa !88
  %15 = fadd nsz float %4, -5.000000e-01
  %16 = tail call nsz float @llvm.fabs.f32(float %15)
  %17 = sitofp i32 %14 to float
  %18 = fmul nsz float %16, %17
  %19 = fptosi float %18 to i32
  %20 = sitofp i32 %12 to float
  %21 = fmul nsz float %16, %20
  %22 = fptosi float %21 to i32
  %23 = getelementptr inbounds nuw i8, ptr %10, i64 40
  %24 = load i32, ptr %23, align 8, !tbaa !77
  %25 = icmp sgt i32 %24, 0
  br i1 %25, label %.lr.ph, label %._crit_edge

.lr.ph:                                           ; preds = %8
  %26 = getelementptr inbounds nuw i8, ptr %10, i64 124
  %27 = getelementptr inbounds nuw i8, ptr %3, i64 64
  %28 = icmp slt i32 %5, %6
  %29 = getelementptr inbounds nuw i8, ptr %1, i64 64
  %30 = getelementptr inbounds nuw i8, ptr %2, i64 64
  %.neg = sdiv i32 %12, -2
  %.neg67 = sdiv i32 %14, -2
  %31 = icmp sgt i32 %12, 0
  %or.cond = select i1 %28, i1 %31, i1 false
  br i1 %or.cond, label %.lr.ph.split.us.split.us, label %._crit_edge

.lr.ph.split.us.split.us:                         ; preds = %.lr.ph
  %32 = fcmp nsz olt float %4, 5.000000e-01
  %33 = sext i32 %5 to i64
  %wide.trip.count126 = zext nneg i32 %24 to i64
  %wide.trip.count121 = sext i32 %6 to i64
  %wide.trip.count111 = zext nneg i32 %12 to i64
  %wide.trip.count116 = zext nneg i32 %12 to i64
  br i1 %32, label %.lr.ph76.us.us.us, label %.lr.ph76.us.us

.lr.ph76.us.us.us:                                ; preds = %.lr.ph.split.us.split.us, %._crit_edge77.split.us.us.us.split.us.us
  %indvars.iv123 = phi i64 [ %indvars.iv.next124, %._crit_edge77.split.us.us.us.split.us.us ], [ 0, %.lr.ph.split.us.split.us ]
  %34 = getelementptr inbounds nuw [4 x i16], ptr %26, i64 0, i64 %indvars.iv123
  %35 = load i16, ptr %34, align 2, !tbaa !79
  %36 = getelementptr inbounds nuw [8 x ptr], ptr %3, i64 0, i64 %indvars.iv123
  %37 = load ptr, ptr %36, align 8, !tbaa !89
  %38 = getelementptr inbounds nuw [8 x i32], ptr %27, i64 0, i64 %indvars.iv123
  %39 = load i32, ptr %38, align 4, !tbaa !31
  %40 = mul nsw i32 %39, %5
  %41 = sext i32 %40 to i64
  %42 = getelementptr inbounds i8, ptr %37, i64 %41
  %43 = getelementptr inbounds nuw [8 x ptr], ptr %2, i64 0, i64 %indvars.iv123
  %44 = load ptr, ptr %43, align 8, !tbaa !89
  %45 = getelementptr inbounds nuw [8 x i32], ptr %30, i64 0, i64 %indvars.iv123
  %46 = load i32, ptr %45, align 4, !tbaa !31
  %47 = sdiv i32 %39, 2
  %48 = sext i32 %47 to i64
  %49 = sext i32 %46 to i64
  br label %.lr.ph.us.us.us.us.us

.lr.ph.us.us.us.us.us:                            ; preds = %._crit_edge.us.us.us.us.us, %.lr.ph76.us.us.us
  %indvars.iv118 = phi i64 [ %indvars.iv.next119, %._crit_edge.us.us.us.us.us ], [ %33, %.lr.ph76.us.us.us ]
  %.06173.us.us.us.us.us = phi ptr [ %57, %._crit_edge.us.us.us.us.us ], [ %42, %.lr.ph76.us.us.us ]
  %50 = mul nsw i64 %indvars.iv118, %49
  %51 = getelementptr inbounds i8, ptr %44, i64 %50
  %52 = trunc nsw i64 %indvars.iv118 to i32
  %53 = add i32 %.neg67, %52
  %54 = tail call i32 @llvm.abs.i32(i32 %53, i1 true)
  %55 = icmp slt i32 %54, %19
  %cond.fr.us.us.us.us.us = freeze i1 %55
  br i1 %cond.fr.us.us.us.us.us, label %.lr.ph.split.us.us.us.us.us.us, label %.lr.ph.split.us81.us.us.us.us

.lr.ph.split.us81.us.us.us.us:                    ; preds = %.lr.ph.us.us.us.us.us, %.lr.ph.split.us81.us.us.us.us
  %indvars.iv108 = phi i64 [ %indvars.iv.next109, %.lr.ph.split.us81.us.us.us.us ], [ 0, %.lr.ph.us.us.us.us.us ]
  %56 = getelementptr inbounds nuw i16, ptr %.06173.us.us.us.us.us, i64 %indvars.iv108
  store i16 %35, ptr %56, align 2, !tbaa !79
  %indvars.iv.next109 = add nuw nsw i64 %indvars.iv108, 1
  %exitcond112.not = icmp eq i64 %indvars.iv.next109, %wide.trip.count111
  br i1 %exitcond112.not, label %._crit_edge.us.us.us.us.us, label %.lr.ph.split.us81.us.us.us.us, !llvm.loop !160

._crit_edge.us.us.us.us.us:                       ; preds = %.lr.ph.split.us81.us.us.us.us, %.thread.us.us.us.us.us.us
  %57 = getelementptr inbounds i16, ptr %.06173.us.us.us.us.us, i64 %48
  %indvars.iv.next119 = add nsw i64 %indvars.iv118, 1
  %exitcond122.not = icmp eq i64 %indvars.iv.next119, %wide.trip.count121
  br i1 %exitcond122.not, label %._crit_edge77.split.us.us.us.split.us.us, label %.lr.ph.us.us.us.us.us, !llvm.loop !161

.lr.ph.split.us.us.us.us.us.us:                   ; preds = %.lr.ph.us.us.us.us.us, %.thread.us.us.us.us.us.us
  %indvars.iv113 = phi i64 [ %indvars.iv.next114, %.thread.us.us.us.us.us.us ], [ 0, %.lr.ph.us.us.us.us.us ]
  %58 = trunc nuw nsw i64 %indvars.iv113 to i32
  %59 = add i32 %.neg, %58
  %60 = tail call i32 @llvm.abs.i32(i32 %59, i1 true)
  %61 = icmp slt i32 %60, %22
  br i1 %61, label %62, label %.thread.us.us.us.us.us.us

62:                                               ; preds = %.lr.ph.split.us.us.us.us.us.us
  %.in.in.us.us.us.us.us.us = getelementptr inbounds nuw i16, ptr %51, i64 %indvars.iv113
  %.in.us.us.us.us.us.us = load i16, ptr %.in.in.us.us.us.us.us.us, align 2, !tbaa !79
  br label %.thread.us.us.us.us.us.us

.thread.us.us.us.us.us.us:                        ; preds = %.lr.ph.split.us.us.us.us.us.us, %62
  %63 = phi i16 [ %.in.us.us.us.us.us.us, %62 ], [ %35, %.lr.ph.split.us.us.us.us.us.us ]
  %64 = getelementptr inbounds nuw i16, ptr %.06173.us.us.us.us.us, i64 %indvars.iv113
  store i16 %63, ptr %64, align 2, !tbaa !79
  %indvars.iv.next114 = add nuw nsw i64 %indvars.iv113, 1
  %exitcond117.not = icmp eq i64 %indvars.iv.next114, %wide.trip.count116
  br i1 %exitcond117.not, label %._crit_edge.us.us.us.us.us, label %.lr.ph.split.us.us.us.us.us.us, !llvm.loop !160

._crit_edge77.split.us.us.us.split.us.us:         ; preds = %._crit_edge.us.us.us.us.us
  %indvars.iv.next124 = add nuw nsw i64 %indvars.iv123, 1
  %exitcond127.not = icmp eq i64 %indvars.iv.next124, %wide.trip.count126
  br i1 %exitcond127.not, label %._crit_edge, label %.lr.ph76.us.us.us, !llvm.loop !162

.lr.ph76.us.us:                                   ; preds = %.lr.ph.split.us.split.us, %._crit_edge77.split.us.us.us.split
  %indvars.iv103 = phi i64 [ %indvars.iv.next104, %._crit_edge77.split.us.us.us.split ], [ 0, %.lr.ph.split.us.split.us ]
  %65 = getelementptr inbounds nuw [4 x i16], ptr %26, i64 0, i64 %indvars.iv103
  %66 = load i16, ptr %65, align 2, !tbaa !79
  %67 = getelementptr inbounds nuw [8 x ptr], ptr %3, i64 0, i64 %indvars.iv103
  %68 = load ptr, ptr %67, align 8, !tbaa !89
  %69 = getelementptr inbounds nuw [8 x i32], ptr %27, i64 0, i64 %indvars.iv103
  %70 = load i32, ptr %69, align 4, !tbaa !31
  %71 = mul nsw i32 %70, %5
  %72 = sext i32 %71 to i64
  %73 = getelementptr inbounds i8, ptr %68, i64 %72
  %74 = getelementptr inbounds nuw [8 x ptr], ptr %1, i64 0, i64 %indvars.iv103
  %75 = load ptr, ptr %74, align 8, !tbaa !89
  %76 = getelementptr inbounds nuw [8 x i32], ptr %29, i64 0, i64 %indvars.iv103
  %77 = load i32, ptr %76, align 4, !tbaa !31
  %78 = sdiv i32 %70, 2
  %79 = sext i32 %78 to i64
  %80 = sext i32 %77 to i64
  br label %.lr.ph.us.us.us

.lr.ph.us.us.us:                                  ; preds = %._crit_edge.us.us.us, %.lr.ph76.us.us
  %indvars.iv98 = phi i64 [ %indvars.iv.next99, %._crit_edge.us.us.us ], [ %33, %.lr.ph76.us.us ]
  %.06173.us.us.us = phi ptr [ %88, %._crit_edge.us.us.us ], [ %73, %.lr.ph76.us.us ]
  %81 = mul nsw i64 %indvars.iv98, %80
  %82 = getelementptr inbounds i8, ptr %75, i64 %81
  %83 = trunc nsw i64 %indvars.iv98 to i32
  %84 = add i32 %.neg67, %83
  %85 = tail call i32 @llvm.abs.i32(i32 %84, i1 true)
  %86 = icmp slt i32 %85, %19
  %cond.fr.us.us.us = freeze i1 %86
  br i1 %cond.fr.us.us.us, label %.lr.ph.split.us.us.us.us, label %.lr.ph.split.us81.us.us

.lr.ph.split.us81.us.us:                          ; preds = %.lr.ph.us.us.us, %.lr.ph.split.us81.us.us
  %indvars.iv = phi i64 [ %indvars.iv.next, %.lr.ph.split.us81.us.us ], [ 0, %.lr.ph.us.us.us ]
  %87 = getelementptr inbounds nuw i16, ptr %.06173.us.us.us, i64 %indvars.iv
  store i16 %66, ptr %87, align 2, !tbaa !79
  %indvars.iv.next = add nuw nsw i64 %indvars.iv, 1
  %exitcond.not = icmp eq i64 %indvars.iv.next, %wide.trip.count111
  br i1 %exitcond.not, label %._crit_edge.us.us.us, label %.lr.ph.split.us81.us.us, !llvm.loop !160

._crit_edge.us.us.us:                             ; preds = %.lr.ph.split.us81.us.us, %.thread.us.us.us.us
  %88 = getelementptr inbounds i16, ptr %.06173.us.us.us, i64 %79
  %indvars.iv.next99 = add nsw i64 %indvars.iv98, 1
  %exitcond102.not = icmp eq i64 %indvars.iv.next99, %wide.trip.count121
  br i1 %exitcond102.not, label %._crit_edge77.split.us.us.us.split, label %.lr.ph.us.us.us, !llvm.loop !161

.lr.ph.split.us.us.us.us:                         ; preds = %.lr.ph.us.us.us, %.thread.us.us.us.us
  %indvars.iv93 = phi i64 [ %indvars.iv.next94, %.thread.us.us.us.us ], [ 0, %.lr.ph.us.us.us ]
  %89 = trunc nuw nsw i64 %indvars.iv93 to i32
  %90 = add i32 %.neg, %89
  %91 = tail call i32 @llvm.abs.i32(i32 %90, i1 true)
  %92 = icmp slt i32 %91, %22
  br i1 %92, label %93, label %.thread.us.us.us.us

93:                                               ; preds = %.lr.ph.split.us.us.us.us
  %.in.in.us.us.us.us = getelementptr inbounds nuw i16, ptr %82, i64 %indvars.iv93
  %.in.us.us.us.us = load i16, ptr %.in.in.us.us.us.us, align 2, !tbaa !79
  br label %.thread.us.us.us.us

.thread.us.us.us.us:                              ; preds = %.lr.ph.split.us.us.us.us, %93
  %94 = phi i16 [ %.in.us.us.us.us, %93 ], [ %66, %.lr.ph.split.us.us.us.us ]
  %95 = getelementptr inbounds nuw i16, ptr %.06173.us.us.us, i64 %indvars.iv93
  store i16 %94, ptr %95, align 2, !tbaa !79
  %indvars.iv.next94 = add nuw nsw i64 %indvars.iv93, 1
  %exitcond97.not = icmp eq i64 %indvars.iv.next94, %wide.trip.count116
  br i1 %exitcond97.not, label %._crit_edge.us.us.us, label %.lr.ph.split.us.us.us.us, !llvm.loop !160

._crit_edge77.split.us.us.us.split:               ; preds = %._crit_edge.us.us.us
  %indvars.iv.next104 = add nuw nsw i64 %indvars.iv103, 1
  %exitcond107.not = icmp eq i64 %indvars.iv.next104, %wide.trip.count126
  br i1 %exitcond107.not, label %._crit_edge, label %.lr.ph76.us.us, !llvm.loop !162

._crit_edge:                                      ; preds = %._crit_edge77.split.us.us.us.split, %._crit_edge77.split.us.us.us.split.us.us, %.lr.ph, %8
  ret void
}